target datalayout = "e-m:e-p270:32:32-p271:32:32-p272:64:64-i64:64-i128:128-f80:128-n8:16:32:64-S128"
target triple = "x86_64-pc-linux-gnu"

; Function Attrs: inlinehint nounwind uwtable
define internal i32 @Kit_TruthWordNum(i32 noundef %0) #2 {
  %2 = alloca i32, align 4
  store i32 %0, ptr %2, align 4, !tbaa !8
  %3 = load i32, ptr %2, align 4, !tbaa !8
  %4 = icmp sle i32 %3, 5
  br i1 %4, label %5, label %6

5:                                                ; preds = %1
  br label %10

6:                                                ; preds = %1
  %7 = load i32, ptr %2, align 4, !tbaa !8
  %8 = sub nsw i32 %7, 5
  %9 = shl i32 1, %8
  br label %10

10:                                               ; preds = %6, %5
  %11 = phi i32 [ 1, %5 ], [ %9, %6 ]
  ret i32 %11
}

; Function Attrs: nounwind uwtable
define i32 @Kit_TruthVarIsVacuous(ptr noundef %0, ptr noundef %1, i32 noundef %2, i32 noundef %3) #0 {
  %5 = alloca i32, align 4
  %6 = alloca ptr, align 8
  %7 = alloca ptr, align 8
  %8 = alloca i32, align 4
  %9 = alloca i32, align 4
  %10 = alloca i32, align 4
  %11 = alloca i32, align 4
  %12 = alloca i32, align 4
  %13 = alloca i32, align 4
  %14 = alloca i32, align 4
  store ptr %0, ptr %6, align 8, !tbaa !3
  store ptr %1, ptr %7, align 8, !tbaa !3
  store i32 %2, ptr %8, align 4, !tbaa !8
  store i32 %3, ptr %9, align 4, !tbaa !8
  call void @llvm.lifetime.start.p0(i64 4, ptr %10) #8
  %15 = load i32, ptr %8, align 4, !tbaa !8
  %16 = call i32 @Kit_TruthWordNum(i32 noundef %15)
  store i32 %16, ptr %10, align 4, !tbaa !8
  call void @llvm.lifetime.start.p0(i64 4, ptr %11) #8
  call void @llvm.lifetime.start.p0(i64 4, ptr %12) #8
  call void @llvm.lifetime.start.p0(i64 4, ptr %13) #8
  %17 = load i32, ptr %9, align 4, !tbaa !8
  switch i32 %17, label %213 [
    i32 0, label %18
    i32 1, label %57
    i32 2, label %96
    i32 3, label %135
    i32 4, label %174
  ]

18:                                               ; preds = %4
  store i32 0, ptr %11, align 4, !tbaa !8
  br label %19

19:                                               ; preds = %53, %18
  %20 = load i32, ptr %11, align 4, !tbaa !8
  %21 = load i32, ptr %10, align 4, !tbaa !8
  %22 = icmp slt i32 %20, %21
  br i1 %22, label %23, label %56

23:                                               ; preds = %19
  %24 = load ptr, ptr %6, align 8, !tbaa !3
  %25 = load i32, ptr %11, align 4, !tbaa !8
  %26 = sext i32 %25 to i64
  %27 = getelementptr inbounds i32, ptr %24, i64 %26
  %28 = load i32, ptr %27, align 4, !tbaa !8
  %29 = load ptr, ptr %7, align 8, !tbaa !3
  %30 = load i32, ptr %11, align 4, !tbaa !8
  %31 = sext i32 %30 to i64
  %32 = getelementptr inbounds i32, ptr %29, i64 %31
  %33 = load i32, ptr %32, align 4, !tbaa !8
  %34 = lshr i32 %33, 1
  %35 = and i32 %28, %34
  %36 = load ptr, ptr %7, align 8, !tbaa !3
  %37 = load i32, ptr %11, align 4, !tbaa !8
  %38 = sext i32 %37 to i64
  %39 = getelementptr inbounds i32, ptr %36, i64 %38
  %40 = load i32, ptr %39, align 4, !tbaa !8
  %41 = load ptr, ptr %6, align 8, !tbaa !3
  %42 = load i32, ptr %11, align 4, !tbaa !8
  %43 = sext i32 %42 to i64
  %44 = getelementptr inbounds i32, ptr %41, i64 %43
  %45 = load i32, ptr %44, align 4, !tbaa !8
  %46 = lshr i32 %45, 1
  %47 = and i32 %40, %46
  %48 = or i32 %35, %47
  %49 = and i32 %48, 1431655765
  %50 = icmp ne i32 %49, 0
  br i1 %50, label %51, label %52

51:                                               ; preds = %23
  store i32 0, ptr %5, align 4
  store i32 1, ptr %14, align 4
  br label %277

52:                                               ; preds = %23
  br label %53

53:                                               ; preds = %52
  %54 = load i32, ptr %11, align 4, !tbaa !8
  %55 = add nsw i32 %54, 1
  store i32 %55, ptr %11, align 4, !tbaa !8
  br label %19, !llvm.loop !82

56:                                               ; preds = %19
  store i32 1, ptr %5, align 4
  store i32 1, ptr %14, align 4
  br label %277

57:                                               ; preds = %4
  store i32 0, ptr %11, align 4, !tbaa !8
  br label %58

58:                                               ; preds = %92, %57
  %59 = load i32, ptr %11, align 4, !tbaa !8
  %60 = load i32, ptr %10, align 4, !tbaa !8
  %61 = icmp slt i32 %59, %60
  br i1 %61, label %62, label %95

62:                                               ; preds = %58
  %63 = load ptr, ptr %6, align 8, !tbaa !3
  %64 = load i32, ptr %11, align 4, !tbaa !8
  %65 = sext i32 %64 to i64
  %66 = getelementptr inbounds i32, ptr %63, i64 %65
  %67 = load i32, ptr %66, align 4, !tbaa !8
  %68 = load ptr, ptr %7, align 8, !tbaa !3
  %69 = load i32, ptr %11, align 4, !tbaa !8
  %70 = sext i32 %69 to i64
  %71 = getelementptr inbounds i32, ptr %68, i64 %70
  %72 = load i32, ptr %71, align 4, !tbaa !8
  %73 = lshr i32 %72, 2
  %74 = and i32 %67, %73
  %75 = load ptr, ptr %7, align 8, !tbaa !3
  %76 = load i32, ptr %11, align 4, !tbaa !8
  %77 = sext i32 %76 to i64
  %78 = getelementptr inbounds i32, ptr %75, i64 %77
  %79 = load i32, ptr %78, align 4, !tbaa !8
  %80 = load ptr, ptr %6, align 8, !tbaa !3
  %81 = load i32, ptr %11, align 4, !tbaa !8
  %82 = sext i32 %81 to i64
  %83 = getelementptr inbounds i32, ptr %80, i64 %82
  %84 = load i32, ptr %83, align 4, !tbaa !8
  %85 = lshr i32 %84, 2
  %86 = and i32 %79, %85
  %87 = or i32 %74, %86
  %88 = and i32 %87, 858993459
  %89 = icmp ne i32 %88, 0
  br i1 %89, label %90, label %91

90:                                               ; preds = %62
  store i32 0, ptr %5, align 4
  store i32 1, ptr %14, align 4
  br label %277

91:                                               ; preds = %62
  br label %92

92:                                               ; preds = %91
  %93 = load i32, ptr %11, align 4, !tbaa !8
  %94 = add nsw i32 %93, 1
  store i32 %94, ptr %11, align 4, !tbaa !8
  br label %58, !llvm.loop !83

95:                                               ; preds = %58
  store i32 1, ptr %5, align 4
  store i32 1, ptr %14, align 4
  br label %277

96:                                               ; preds = %4
  store i32 0, ptr %11, align 4, !tbaa !8
  br label %97

97:                                               ; preds = %131, %96
  %98 = load i32, ptr %11, align 4, !tbaa !8
  %99 = load i32, ptr %10, align 4, !tbaa !8
  %100 = icmp slt i32 %98, %99
  br i1 %100, label %101, label %134

101:                                              ; preds = %97
  %102 = load ptr, ptr %6, align 8, !tbaa !3
  %103 = load i32, ptr %11, align 4, !tbaa !8
  %104 = sext i32 %103 to i64
  %105 = getelementptr inbounds i32, ptr %102, i64 %104
  %106 = load i32, ptr %105, align 4, !tbaa !8
  %107 = load ptr, ptr %7, align 8, !tbaa !3
  %108 = load i32, ptr %11, align 4, !tbaa !8
  %109 = sext i32 %108 to i64
  %110 = getelementptr inbounds i32, ptr %107, i64 %109
  %111 = load i32, ptr %110, align 4, !tbaa !8
  %112 = lshr i32 %111, 4
  %113 = and i32 %106, %112
  %114 = load ptr, ptr %7, align 8, !tbaa !3
  %115 = load i32, ptr %11, align 4, !tbaa !8
  %116 = sext i32 %115 to i64
  %117 = getelementptr inbounds i32, ptr %114, i64 %116
  %118 = load i32, ptr %117, align 4, !tbaa !8
  %119 = load ptr, ptr %6, align 8, !tbaa !3
  %120 = load i32, ptr %11, align 4, !tbaa !8
  %121 = sext i32 %120 to i64
  %122 = getelementptr inbounds i32, ptr %119, i64 %121
  %123 = load i32, ptr %122, align 4, !tbaa !8
  %124 = lshr i32 %123, 4
  %125 = and i32 %118, %124
  %126 = or i32 %113, %125
  %127 = and i32 %126, 252645135
  %128 = icmp ne i32 %127, 0
  br i1 %128, label %129, label %130

129:                                              ; preds = %101
  store i32 0, ptr %5, align 4
  store i32 1, ptr %14, align 4
  br label %277

130:                                              ; preds = %101
  br label %131

131:                                              ; preds = %130
  %132 = load i32, ptr %11, align 4, !tbaa !8
  %133 = add nsw i32 %132, 1
  store i32 %133, ptr %11, align 4, !tbaa !8
  br label %97, !llvm.loop !84

134:                                              ; preds = %97
  store i32 1, ptr %5, align 4
  store i32 1, ptr %14, align 4
  br label %277

135:                                              ; preds = %4
  store i32 0, ptr %11, align 4, !tbaa !8
  br label %136

136:                                              ; preds = %170, %135
  %137 = load i32, ptr %11, align 4, !tbaa !8
  %138 = load i32, ptr %10, align 4, !tbaa !8
  %139 = icmp slt i32 %137, %138
  br i1 %139, label %140, label %173

140:                                              ; preds = %136
  %141 = load ptr, ptr %6, align 8, !tbaa !3
  %142 = load i32, ptr %11, align 4, !tbaa !8
  %143 = sext i32 %142 to i64
  %144 = getelementptr inbounds i32, ptr %141, i64 %143
  %145 = load i32, ptr %144, align 4, !tbaa !8
  %146 = load ptr, ptr %7, align 8, !tbaa !3
  %147 = load i32, ptr %11, align 4, !tbaa !8
  %148 = sext i32 %147 to i64
  %149 = getelementptr inbounds i32, ptr %146, i64 %148
  %150 = load i32, ptr %149, align 4, !tbaa !8
  %151 = lshr i32 %150, 8
  %152 = and i32 %145, %151
  %153 = load ptr, ptr %7, align 8, !tbaa !3
  %154 = load i32, ptr %11, align 4, !tbaa !8
  %155 = sext i32 %154 to i64
  %156 = getelementptr inbounds i32, ptr %153, i64 %155
  %157 = load i32, ptr %156, align 4, !tbaa !8
  %158 = load ptr, ptr %6, align 8, !tbaa !3
  %159 = load i32, ptr %11, align 4, !tbaa !8
  %160 = sext i32 %159 to i64
  %161 = getelementptr inbounds i32, ptr %158, i64 %160
  %162 = load i32, ptr %161, align 4, !tbaa !8
  %163 = lshr i32 %162, 8
  %164 = and i32 %157, %163
  %165 = or i32 %152, %164
  %166 = and i32 %165, 16711935
  %167 = icmp ne i32 %166, 0
  br i1 %167, label %168, label %169

168:                                              ; preds = %140
  store i32 0, ptr %5, align 4
  store i32 1, ptr %14, align 4
  br label %277

169:                                              ; preds = %140
  br label %170

170:                                              ; preds = %169
  %171 = load i32, ptr %11, align 4, !tbaa !8
  %172 = add nsw i32 %171, 1
  store i32 %172, ptr %11, align 4, !tbaa !8
  br label %136, !llvm.loop !85

173:                                              ; preds = %136
  store i32 1, ptr %5, align 4
  store i32 1, ptr %14, align 4
  br label %277

174:                                              ; preds = %4
  store i32 0, ptr %11, align 4, !tbaa !8
  br label %175

175:                                              ; preds = %209, %174
  %176 = load i32, ptr %11, align 4, !tbaa !8
  %177 = load i32, ptr %10, align 4, !tbaa !8
  %178 = icmp slt i32 %176, %177
  br i1 %178, label %179, label %212

179:                                              ; preds = %175
  %180 = load ptr, ptr %6, align 8, !tbaa !3
  %181 = load i32, ptr %11, align 4, !tbaa !8
  %182 = sext i32 %181 to i64
  %183 = getelementptr inbounds i32, ptr %180, i64 %182
  %184 = load i32, ptr %183, align 4, !tbaa !8
  %185 = load ptr, ptr %7, align 8, !tbaa !3
  %186 = load i32, ptr %11, align 4, !tbaa !8
  %187 = sext i32 %186 to i64
  %188 = getelementptr inbounds i32, ptr %185, i64 %187
  %189 = load i32, ptr %188, align 4, !tbaa !8
  %190 = lshr i32 %189, 16
  %191 = and i32 %184, %190
  %192 = load ptr, ptr %7, align 8, !tbaa !3
  %193 = load i32, ptr %11, align 4, !tbaa !8
  %194 = sext i32 %193 to i64
  %195 = getelementptr inbounds i32, ptr %192, i64 %194
  %196 = load i32, ptr %195, align 4, !tbaa !8
  %197 = load ptr, ptr %6, align 8, !tbaa !3
  %198 = load i32, ptr %11, align 4, !tbaa !8
  %199 = sext i32 %198 to i64
  %200 = getelementptr inbounds i32, ptr %197, i64 %199
  %201 = load i32, ptr %200, align 4, !tbaa !8
  %202 = lshr i32 %201, 16
  %203 = and i32 %196, %202
  %204 = or i32 %191, %203
  %205 = and i32 %204, 65535
  %206 = icmp ne i32 %205, 0
  br i1 %206, label %207, label %208

207:                                              ; preds = %179
  store i32 0, ptr %5, align 4
  store i32 1, ptr %14, align 4
  br label %277

208:                                              ; preds = %179
  br label %209

209:                                              ; preds = %208
  %210 = load i32, ptr %11, align 4, !tbaa !8
  %211 = add nsw i32 %210, 1
  store i32 %211, ptr %11, align 4, !tbaa !8
  br label %175, !llvm.loop !86

212:                                              ; preds = %175
  store i32 1, ptr %5, align 4
  store i32 1, ptr %14, align 4
  br label %277

213:                                              ; preds = %4
  %214 = load i32, ptr %9, align 4, !tbaa !8
  %215 = sub nsw i32 %214, 5
  %216 = shl i32 1, %215
  store i32 %216, ptr %13, align 4, !tbaa !8
  store i32 0, ptr %12, align 4, !tbaa !8
  br label %217

217:                                              ; preds = %271, %213
  %218 = load i32, ptr %12, align 4, !tbaa !8
  %219 = load i32, ptr %10, align 4, !tbaa !8
  %220 = icmp slt i32 %218, %219
  br i1 %220, label %221, label %276

221:                                              ; preds = %217
  store i32 0, ptr %11, align 4, !tbaa !8
  br label %222

222:                                              ; preds = %257, %221
  %223 = load i32, ptr %11, align 4, !tbaa !8
  %224 = load i32, ptr %13, align 4, !tbaa !8
  %225 = icmp slt i32 %223, %224
  br i1 %225, label %226, label %260

226:                                              ; preds = %222
  %227 = load ptr, ptr %6, align 8, !tbaa !3
  %228 = load i32, ptr %11, align 4, !tbaa !8
  %229 = sext i32 %228 to i64
  %230 = getelementptr inbounds i32, ptr %227, i64 %229
  %231 = load i32, ptr %230, align 4, !tbaa !8
  %232 = load ptr, ptr %7, align 8, !tbaa !3
  %233 = load i32, ptr %13, align 4, !tbaa !8
  %234 = load i32, ptr %11, align 4, !tbaa !8
  %235 = add nsw i32 %233, %234
  %236 = sext i32 %235 to i64
  %237 = getelementptr inbounds i32, ptr %232, i64 %236
  %238 = load i32, ptr %237, align 4, !tbaa !8
  %239 = and i32 %231, %238
  %240 = load ptr, ptr %7, align 8, !tbaa !3
  %241 = load i32, ptr %11, align 4, !tbaa !8
  %242 = sext i32 %241 to i64
  %243 = getelementptr inbounds i32, ptr %240, i64 %242
  %244 = load i32, ptr %243, align 4, !tbaa !8
  %245 = load ptr, ptr %6, align 8, !tbaa !3
  %246 = load i32, ptr %13, align 4, !tbaa !8
  %247 = load i32, ptr %11, align 4, !tbaa !8
  %248 = add nsw i32 %246, %247
  %249 = sext i32 %248 to i64
  %250 = getelementptr inbounds i32, ptr %245, i64 %249
  %251 = load i32, ptr %250, align 4, !tbaa !8
  %252 = and i32 %244, %251
  %253 = or i32 %239, %252
  %254 = icmp ne i32 %253, 0
  br i1 %254, label %255, label %256

255:                                              ; preds = %226
  store i32 0, ptr %5, align 4
  store i32 1, ptr %14, align 4
  br label %277

256:                                              ; preds = %226
  br label %257

257:                                              ; preds = %256
  %258 = load i32, ptr %11, align 4, !tbaa !8
  %259 = add nsw i32 %258, 1
  store i32 %259, ptr %11, align 4, !tbaa !8
  br label %222, !llvm.loop !87

260:                                              ; preds = %222
  %261 = load i32, ptr %13, align 4, !tbaa !8
  %262 = mul nsw i32 2, %261
  %263 = load ptr, ptr %6, align 8, !tbaa !3
  %264 = sext i32 %262 to i64
  %265 = getelementptr inbounds i32, ptr %263, i64 %264
  store ptr %265, ptr %6, align 8, !tbaa !3
  %266 = load i32, ptr %13, align 4, !tbaa !8
  %267 = mul nsw i32 2, %266
  %268 = load ptr, ptr %7, align 8, !tbaa !3
  %269 = sext i32 %267 to i64
  %270 = getelementptr inbounds i32, ptr %268, i64 %269
  store ptr %270, ptr %7, align 8, !tbaa !3
  br label %271

271:                                              ; preds = %260
  %272 = load i32, ptr %13, align 4, !tbaa !8
  %273 = mul nsw i32 2, %272
  %274 = load i32, ptr %12, align 4, !tbaa !8
  %275 = add nsw i32 %274, %273
  store i32 %275, ptr %12, align 4, !tbaa !8
  br label %217, !llvm.loop !88

276:                                              ; preds = %217
  store i32 1, ptr %5, align 4
  store i32 1, ptr %14, align 4
  br label %277

277:                                              ; preds = %276, %255, %212, %207, %173, %168, %134, %129, %95, %90, %56, %51
  call void @llvm.lifetime.end.p0(i64 4, ptr %13) #8
  call void @llvm.lifetime.end.p0(i64 4, ptr %12) #8
  call void @llvm.lifetime.end.p0(i64 4, ptr %11) #8
  call void @llvm.lifetime.end.p0(i64 4, ptr %10) #8
  %278 = load i32, ptr %5, align 4
  ret i32 %278
}