; Function Attrs: nofree norecurse nosync nounwind memory(argmem: read) uwtable
define range(i32 0, 2) i32 @Kit_TruthVarIsVacuous(ptr noundef readonly captures(none) %0, ptr noundef readonly captures(none) %1, i32 noundef %2, i32 noundef %3) local_unnamed_addr #3 {
  %5 = icmp slt i32 %2, 6
  %6 = add nsw i32 %2, -5
  %7 = shl nuw i32 1, %6
  %8 = select i1 %5, i32 1, i32 %7
  switch i32 %3, label %68 [
    i32 0, label %.preheader91
    i32 1, label %.preheader93
    i32 2, label %.preheader96
    i32 3, label %.preheader99
    i32 4, label %.preheader102
  ]

.preheader102:                                    ; preds = %4
  %9 = icmp sgt i32 %8, 0
  br i1 %9, label %.lr.ph.preheader, label %.loopexit

.lr.ph.preheader:                                 ; preds = %.preheader102
  %wide.trip.count = zext nneg i32 %8 to i64
  br label %.lr.ph

.preheader99:                                     ; preds = %4
  %10 = icmp sgt i32 %8, 0
  br i1 %10, label %.lr.ph109.preheader, label %.loopexit

.lr.ph109.preheader:                              ; preds = %.preheader99
  %wide.trip.count149 = zext nneg i32 %8 to i64
  br label %.lr.ph109

.preheader96:                                     ; preds = %4
  %11 = icmp sgt i32 %8, 0
  br i1 %11, label %.lr.ph114.preheader, label %.loopexit

.lr.ph114.preheader:                              ; preds = %.preheader96
  %wide.trip.count154 = zext nneg i32 %8 to i64
  br label %.lr.ph114

.preheader93:                                     ; preds = %4
  %12 = icmp sgt i32 %8, 0
  br i1 %12, label %.lr.ph119.preheader, label %.loopexit

.lr.ph119.preheader:                              ; preds = %.preheader93
  %wide.trip.count159 = zext nneg i32 %8 to i64
  br label %.lr.ph119

.preheader91:                                     ; preds = %4
  %13 = icmp sgt i32 %8, 0
  br i1 %13, label %.lr.ph124.preheader, label %.loopexit

.lr.ph124.preheader:                              ; preds = %.preheader91
  %wide.trip.count164 = zext nneg i32 %8 to i64
  br label %.lr.ph124

14:                                               ; preds = %.lr.ph124
  %indvars.iv.next162 = add nuw nsw i64 %indvars.iv161, 1
  %exitcond165.not = icmp eq i64 %indvars.iv.next162, %wide.trip.count164
  br i1 %exitcond165.not, label %.loopexit, label %.lr.ph124, !llvm.loop !76

.lr.ph124:                                        ; preds = %.lr.ph124.preheader, %14
  %indvars.iv161 = phi i64 [ 0, %.lr.ph124.preheader ], [ %indvars.iv.next162, %14 ]
  %15 = getelementptr inbounds nuw i32, ptr %0, i64 %indvars.iv161
  %16 = load i32, ptr %15, align 4, !tbaa !3
  %17 = getelementptr inbounds nuw i32, ptr %1, i64 %indvars.iv161
  %18 = load i32, ptr %17, align 4, !tbaa !3
  %19 = lshr i32 %18, 1
  %20 = and i32 %19, %16
  %21 = lshr i32 %16, 1
  %22 = and i32 %18, %21
  %23 = or i32 %20, %22
  %24 = and i32 %23, 1431655765
  %.not88 = icmp eq i32 %24, 0
  br i1 %.not88, label %14, label %.loopexit

25:                                               ; preds = %.lr.ph119
  %indvars.iv.next157 = add nuw nsw i64 %indvars.iv156, 1
  %exitcond160.not = icmp eq i64 %indvars.iv.next157, %wide.trip.count159
  br i1 %exitcond160.not, label %.loopexit, label %.lr.ph119, !llvm.loop !77

.lr.ph119:                                        ; preds = %.lr.ph119.preheader, %25
  %indvars.iv156 = phi i64 [ 0, %.lr.ph119.preheader ], [ %indvars.iv.next157, %25 ]
  %26 = getelementptr inbounds nuw i32, ptr %0, i64 %indvars.iv156
  %27 = load i32, ptr %26, align 4, !tbaa !3
  %28 = getelementptr inbounds nuw i32, ptr %1, i64 %indvars.iv156
  %29 = load i32, ptr %28, align 4, !tbaa !3
  %30 = lshr i32 %29, 2
  %31 = and i32 %30, %27
  %32 = lshr i32 %27, 2
  %33 = and i32 %29, %32
  %34 = or i32 %31, %33
  %35 = and i32 %34, 858993459
  %.not87 = icmp eq i32 %35, 0
  br i1 %.not87, label %25, label %.loopexit

36:                                               ; preds = %.lr.ph114
  %indvars.iv.next152 = add nuw nsw i64 %indvars.iv151, 1
  %exitcond155.not = icmp eq i64 %indvars.iv.next152, %wide.trip.count154
  br i1 %exitcond155.not, label %.loopexit, label %.lr.ph114, !llvm.loop !78

.lr.ph114:                                        ; preds = %.lr.ph114.preheader, %36
  %indvars.iv151 = phi i64 [ 0, %.lr.ph114.preheader ], [ %indvars.iv.next152, %36 ]
  %37 = getelementptr inbounds nuw i32, ptr %0, i64 %indvars.iv151
  %38 = load i32, ptr %37, align 4, !tbaa !3
  %39 = getelementptr inbounds nuw i32, ptr %1, i64 %indvars.iv151
  %40 = load i32, ptr %39, align 4, !tbaa !3
  %41 = lshr i32 %40, 4
  %42 = and i32 %41, %38
  %43 = lshr i32 %38, 4
  %44 = and i32 %40, %43
  %45 = or i32 %42, %44
  %46 = and i32 %45, 252645135
  %.not86 = icmp eq i32 %46, 0
  br i1 %.not86, label %36, label %.loopexit

47:                                               ; preds = %.lr.ph109
  %indvars.iv.next147 = add nuw nsw i64 %indvars.iv146, 1
  %exitcond150.not = icmp eq i64 %indvars.iv.next147, %wide.trip.count149
  br i1 %exitcond150.not, label %.loopexit, label %.lr.ph109, !llvm.loop !79

.lr.ph109:                                        ; preds = %.lr.ph109.preheader, %47
  %indvars.iv146 = phi i64 [ 0, %.lr.ph109.preheader ], [ %indvars.iv.next147, %47 ]
  %48 = getelementptr inbounds nuw i32, ptr %0, i64 %indvars.iv146
  %49 = load i32, ptr %48, align 4, !tbaa !3
  %50 = getelementptr inbounds nuw i32, ptr %1, i64 %indvars.iv146
  %51 = load i32, ptr %50, align 4, !tbaa !3
  %52 = lshr i32 %51, 8
  %53 = and i32 %52, %49
  %54 = lshr i32 %49, 8
  %55 = and i32 %51, %54
  %56 = or i32 %53, %55
  %57 = and i32 %56, 16711935
  %.not85 = icmp eq i32 %57, 0
  br i1 %.not85, label %47, label %.loopexit

58:                                               ; preds = %.lr.ph
  %indvars.iv.next = add nuw nsw i64 %indvars.iv, 1
  %exitcond.not = icmp eq i64 %indvars.iv.next, %wide.trip.count
  br i1 %exitcond.not, label %.loopexit, label %.lr.ph, !llvm.loop !80

.lr.ph:                                           ; preds = %.lr.ph.preheader, %58
  %indvars.iv = phi i64 [ 0, %.lr.ph.preheader ], [ %indvars.iv.next, %58 ]
  %59 = getelementptr inbounds nuw i32, ptr %0, i64 %indvars.iv
  %60 = load i32, ptr %59, align 4, !tbaa !3
  %61 = getelementptr inbounds nuw i32, ptr %1, i64 %indvars.iv
  %62 = load i32, ptr %61, align 4, !tbaa !3
  %63 = lshr i32 %62, 16
  %64 = and i32 %63, %60
  %65 = lshr i32 %60, 16
  %66 = and i32 %62, %65
  %67 = or i32 %64, %66
  %.not = icmp eq i32 %67, 0
  br i1 %.not, label %58, label %.loopexit

68:                                               ; preds = %4
  %69 = add nsw i32 %3, -5
  %70 = shl nuw i32 1, %69
  %71 = icmp sgt i32 %8, 0
  br i1 %71, label %.preheader.lr.ph, label %.loopexit

.preheader.lr.ph:                                 ; preds = %68
  %.not133 = icmp eq i32 %69, 31
  %72 = shl i32 2, %69
  %73 = sext i32 %72 to i64
  br i1 %.not133, label %.loopexit, label %.preheader.us.preheader

.preheader.us.preheader:                          ; preds = %.preheader.lr.ph
  %74 = sext i32 %70 to i64
  %smax = tail call i32 @llvm.smax.i32(i32 %70, i32 1)
  %wide.trip.count169 = zext nneg i32 %smax to i64
  br label %.preheader.us

.preheader.us:                                    ; preds = %.preheader.us.preheader, %._crit_edge.us
  %.079132.us = phi i32 [ %91, %._crit_edge.us ], [ 0, %.preheader.us.preheader ]
  %.081131.us = phi ptr [ %89, %._crit_edge.us ], [ %0, %.preheader.us.preheader ]
  %.082130.us = phi ptr [ %90, %._crit_edge.us ], [ %1, %.preheader.us.preheader ]
  br label %76

75:                                               ; preds = %76
  %indvars.iv.next167 = add nuw nsw i64 %indvars.iv166, 1
  %exitcond170.not = icmp eq i64 %indvars.iv.next167, %wide.trip.count169
  br i1 %exitcond170.not, label %._crit_edge.us, label %76, !llvm.loop !81

76:                                               ; preds = %.preheader.us, %75
  %indvars.iv166 = phi i64 [ 0, %.preheader.us ], [ %indvars.iv.next167, %75 ]
  %77 = getelementptr inbounds nuw i32, ptr %.081131.us, i64 %indvars.iv166
  %78 = load i32, ptr %77, align 4, !tbaa !3
  %79 = add nuw nsw i64 %indvars.iv166, %74
  %80 = getelementptr inbounds i32, ptr %.082130.us, i64 %79
  %81 = load i32, ptr %80, align 4, !tbaa !3
  %82 = and i32 %81, %78
  %83 = getelementptr inbounds nuw i32, ptr %.082130.us, i64 %indvars.iv166
  %84 = load i32, ptr %83, align 4, !tbaa !3
  %85 = getelementptr inbounds i32, ptr %.081131.us, i64 %79
  %86 = load i32, ptr %85, align 4, !tbaa !3
  %87 = and i32 %86, %84
  %88 = or i32 %87, %82
  %.not89.us = icmp eq i32 %88, 0
  br i1 %.not89.us, label %75, label %.loopexit

._crit_edge.us:                                   ; preds = %75
  %89 = getelementptr inbounds i32, ptr %.081131.us, i64 %73
  %90 = getelementptr inbounds i32, ptr %.082130.us, i64 %73
  %91 = add nsw i32 %.079132.us, %72
  %92 = icmp slt i32 %91, %8
  br i1 %92, label %.preheader.us, label %.loopexit, !llvm.loop !82

.loopexit:                                        ; preds = %.lr.ph, %58, %.lr.ph109, %47, %.lr.ph114, %36, %.lr.ph119, %25, %.lr.ph124, %14, %._crit_edge.us, %76, %.preheader.lr.ph, %.preheader102, %.preheader99, %.preheader96, %.preheader93, %.preheader91, %68
  %.0 = phi i32 [ 1, %68 ], [ 1, %.preheader91 ], [ 1, %.preheader93 ], [ 1, %.preheader96 ], [ 1, %.preheader99 ], [ 1, %.preheader102 ], [ poison, %.preheader.lr.ph ], [ 0, %76 ], [ 1, %._crit_edge.us ], [ 0, %.lr.ph124 ], [ 1, %14 ], [ 0, %.lr.ph119 ], [ 1, %25 ], [ 0, %.lr.ph114 ], [ 1, %36 ], [ 0, %.lr.ph109 ], [ 1, %47 ], [ 0, %.lr.ph ], [ 1, %58 ]
  ret i32 %.0
}